; Function Attrs: mustprogress nofree norecurse nosync nounwind willreturn memory(readwrite, inaccessiblemem: none) uwtable
define hidden void @_ZN23lackr_model_constructorC2ER11ast_manager3refI9ackr_infoE(ptr noundef nonnull writeonly align 8 captures(none) dereferenceable(44) initializes((0, 20), (24, 44)) %0, ptr noundef nonnull align 8 dereferenceable(976) %1, ptr noundef readonly captures(none) %2) unnamed_addr #3 align 2 personality ptr @__gxx_personality_v0 {
  store ptr null, ptr %0, align 8, !tbaa !3
  %4 = getelementptr inbounds nuw i8, ptr %0, i64 8
  store ptr %1, ptr %4, align 8, !tbaa !16
  %5 = getelementptr inbounds nuw i8, ptr %0, i64 16
  store i32 2, ptr %5, align 8, !tbaa !17
  %6 = getelementptr inbounds nuw i8, ptr %0, i64 24
  store ptr null, ptr %6, align 8, !tbaa !18
  %7 = getelementptr inbounds nuw i8, ptr %0, i64 32
  %8 = load ptr, ptr %2, align 8, !tbaa !19
  store ptr %8, ptr %7, align 8, !tbaa !19
  %.not.i.i = icmp eq ptr %8, null
  br i1 %.not.i.i, label %_ZN3refI9ackr_infoEC2ERKS1_.exit, label %9

9:                                                ; preds = %3
  %10 = getelementptr inbounds nuw i8, ptr %8, i64 128
  %11 = load i32, ptr %10, align 8, !tbaa !20
  %12 = add i32 %11, 1
  store i32 %12, ptr %10, align 8, !tbaa !20
  br label %_ZN3refI9ackr_infoEC2ERKS1_.exit

_ZN3refI9ackr_infoEC2ERKS1_.exit:                 ; preds = %9, %3
  %13 = getelementptr inbounds nuw i8, ptr %0, i64 40
  store i32 0, ptr %13, align 8, !tbaa !39
  ret void
}